target datalayout = "e-m:e-p270:32:32-p271:32:32-p272:64:64-i64:64-i128:128-f80:128-n8:16:32:64-S128"
target triple = "x86_64-pc-linux-gnu"

%struct._zval_struct = type { %union._zend_value, %union.anon, %union.anon.2 }
%union._zend_value = type { i64 }
%union.anon = type { i32 }
%union.anon.2 = type { i32 }
%struct._php_iconv_stream_filter = type { ptr, i32, ptr, i64, ptr, i64, [128 x i8], i64 }
%struct._php_stream_filter = type { ptr, %struct._zval_struct, ptr, ptr, i32, ptr, %struct._php_stream_bucket_brigade, ptr }
%struct._php_stream_bucket_brigade = type { ptr, ptr }

; Function Attrs: nounwind uwtable
define internal void @php_iconv_stream_filter_dtor(ptr noundef %0) #0 {
  %2 = alloca ptr, align 8
  store ptr %0, ptr %2, align 8, !tbaa !106
  %3 = load ptr, ptr %2, align 8, !tbaa !106
  %4 = getelementptr inbounds nuw %struct._php_iconv_stream_filter, ptr %3, i32 0, i32 0
  %5 = load ptr, ptr %4, align 8, !tbaa !113
  %6 = call i32 @iconv_close(ptr noundef %5)
  %7 = load ptr, ptr %2, align 8, !tbaa !106
  %8 = getelementptr inbounds nuw %struct._php_iconv_stream_filter, ptr %7, i32 0, i32 1
  %9 = load i32, ptr %8, align 8, !tbaa !114
  %10 = icmp ne i32 %9, 0
  br i1 %10, label %11, label %15

11:                                               ; preds = %1
  %12 = load ptr, ptr %2, align 8, !tbaa !106
  %13 = getelementptr inbounds nuw %struct._php_iconv_stream_filter, ptr %12, i32 0, i32 2
  %14 = load ptr, ptr %13, align 8, !tbaa !108
  call void @free(ptr noundef %14) #15
  br label %19

15:                                               ; preds = %1
  %16 = load ptr, ptr %2, align 8, !tbaa !106
  %17 = getelementptr inbounds nuw %struct._php_iconv_stream_filter, ptr %16, i32 0, i32 2
  %18 = load ptr, ptr %17, align 8, !tbaa !108
  call void @_efree(ptr noundef %18)
  br label %19

19:                                               ; preds = %15, %11
  %20 = load ptr, ptr %2, align 8, !tbaa !106
  %21 = getelementptr inbounds nuw %struct._php_iconv_stream_filter, ptr %20, i32 0, i32 1
  %22 = load i32, ptr %21, align 8, !tbaa !114
  %23 = icmp ne i32 %22, 0
  br i1 %23, label %24, label %28

24:                                               ; preds = %19
  %25 = load ptr, ptr %2, align 8, !tbaa !106
  %26 = getelementptr inbounds nuw %struct._php_iconv_stream_filter, ptr %25, i32 0, i32 4
  %27 = load ptr, ptr %26, align 8, !tbaa !111
  call void @free(ptr noundef %27) #15
  br label %32

28:                                               ; preds = %19
  %29 = load ptr, ptr %2, align 8, !tbaa !106
  %30 = getelementptr inbounds nuw %struct._php_iconv_stream_filter, ptr %29, i32 0, i32 4
  %31 = load ptr, ptr %30, align 8, !tbaa !111
  call void @_efree(ptr noundef %31)
  br label %32

32:                                               ; preds = %28, %24
  ret void
}

; Function Attrs: nounwind uwtable
define internal void @php_iconv_stream_filter_cleanup(ptr noundef %0) #0 {
  %2 = alloca ptr, align 8
  store ptr %0, ptr %2, align 8, !tbaa !104
  %3 = load ptr, ptr %2, align 8, !tbaa !104
  %4 = getelementptr inbounds nuw %struct._php_stream_filter, ptr %3, i32 0, i32 1
  %5 = getelementptr inbounds nuw %struct._zval_struct, ptr %4, i32 0, i32 0
  %6 = load ptr, ptr %5, align 8, !tbaa !13
  call void @php_iconv_stream_filter_dtor(ptr noundef %6)
  %7 = load ptr, ptr %2, align 8, !tbaa !104
  %8 = getelementptr inbounds nuw %struct._php_stream_filter, ptr %7, i32 0, i32 1
  %9 = getelementptr inbounds nuw %struct._zval_struct, ptr %8, i32 0, i32 0
  %10 = load ptr, ptr %9, align 8, !tbaa !13
  %11 = getelementptr inbounds nuw %struct._php_iconv_stream_filter, ptr %10, i32 0, i32 1
  %12 = load i32, ptr %11, align 8, !tbaa !114
  %13 = icmp ne i32 %12, 0
  br i1 %13, label %14, label %19

14:                                               ; preds = %1
  %15 = load ptr, ptr %2, align 8, !tbaa !104
  %16 = getelementptr inbounds nuw %struct._php_stream_filter, ptr %15, i32 0, i32 1
  %17 = getelementptr inbounds nuw %struct._zval_struct, ptr %16, i32 0, i32 0
  %18 = load ptr, ptr %17, align 8, !tbaa !13
  call void @free(ptr noundef %18) #15
  br label %24

19:                                               ; preds = %1
  %20 = load ptr, ptr %2, align 8, !tbaa !104
  %21 = getelementptr inbounds nuw %struct._php_stream_filter, ptr %20, i32 0, i32 1
  %22 = getelementptr inbounds nuw %struct._zval_struct, ptr %21, i32 0, i32 0
  %23 = load ptr, ptr %22, align 8, !tbaa !13
  call void @_efree(ptr noundef %23)
  br label %24

24:                                               ; preds = %19, %14
  ret void
}