; Function Attrs: nounwind uwtable
define internal void @php_iconv_stream_filter_cleanup(ptr noundef readonly captures(none) %0) #0 {
  %2 = getelementptr inbounds nuw i8, ptr %0, i64 8
  %3 = load ptr, ptr %2, align 8, !tbaa !4
  %4 = load ptr, ptr %3, align 8, !tbaa !96
  %5 = tail call i32 @iconv_close(ptr noundef %4) #16
  %6 = getelementptr inbounds nuw i8, ptr %3, i64 8
  %7 = load i32, ptr %6, align 8, !tbaa !97
  %.not.i = icmp eq i32 %7, 0
  %8 = getelementptr inbounds nuw i8, ptr %3, i64 16
  %9 = load ptr, ptr %8, align 8, !tbaa !91
  br i1 %.not.i, label %11, label %10

10:                                               ; preds = %1
  tail call void @free(ptr noundef %9) #16
  br label %12

11:                                               ; preds = %1
  tail call void @_efree(ptr noundef %9) #16
  br label %12

12:                                               ; preds = %11, %10
  %13 = load i32, ptr %6, align 8, !tbaa !97
  %.not7.i = icmp eq i32 %13, 0
  %14 = getelementptr inbounds nuw i8, ptr %3, i64 32
  %15 = load ptr, ptr %14, align 8, !tbaa !94
  br i1 %.not7.i, label %17, label %16

16:                                               ; preds = %12
  tail call void @free(ptr noundef %15) #16
  br label %php_iconv_stream_filter_dtor.exit

17:                                               ; preds = %12
  tail call void @_efree(ptr noundef %15) #16
  br label %php_iconv_stream_filter_dtor.exit

php_iconv_stream_filter_dtor.exit:                ; preds = %16, %17
  %18 = load ptr, ptr %2, align 8, !tbaa !4
  %19 = getelementptr inbounds nuw i8, ptr %18, i64 8
  %20 = load i32, ptr %19, align 8, !tbaa !97
  %.not = icmp eq i32 %20, 0
  br i1 %.not, label %22, label %21

21:                                               ; preds = %php_iconv_stream_filter_dtor.exit
  tail call void @free(ptr noundef nonnull %18) #16
  br label %23

22:                                               ; preds = %php_iconv_stream_filter_dtor.exit
  tail call void @_efree(ptr noundef nonnull %18) #16
  br label %23

23:                                               ; preds = %22, %21
  ret void
}